; Function Attrs: mustprogress uwtable
define hidden noundef zeroext i1 @_ZN11doc_manager7set_andER3docRK3tbv(ptr noundef nonnull align 8 dereferenceable(1080) %this, ptr noundef nonnull align 8 dereferenceable(88) %dst, ptr noundef nonnull align 4 dereferenceable(4) %src) local_unnamed_addr #3 align 2 {
entry:
  %0 = load ptr, ptr %dst, align 8
  %call2 = tail call noundef zeroext i1 @_ZNK11tbv_manager7set_andER3tbvRKS0_(ptr noundef nonnull align 8 dereferenceable(552) %this, ptr noundef nonnull align 4 dereferenceable(4) %0, ptr noundef nonnull align 4 dereferenceable(4) %src)
  br i1 %call2, label %if.end, label %return

if.end:                                           ; preds = %entry
  %m_neg.i = getelementptr inbounds i8, ptr %dst, i64 8
  tail call void @_ZN10union_bvecI11tbv_manager3tbvE9intersectERS0_RKS1_(ptr noundef nonnull align 8 dereferenceable(80) %m_neg.i, ptr noundef nonnull align 8 dereferenceable(552) %this, ptr noundef nonnull align 4 dereferenceable(4) %src)
  %call5 = tail call noundef zeroext i1 @_ZN11doc_manager8fold_negER3doc(ptr noundef nonnull align 8 dereferenceable(1080) %this, ptr noundef nonnull align 8 dereferenceable(88) %dst)
  br label %return

return:                                           ; preds = %entry, %if.end
  %retval.0 = phi i1 [ %call5, %if.end ], [ false, %entry ]
  ret i1 %retval.0
}